target datalayout = "e-m:e-p270:32:32-p271:32:32-p272:64:64-i64:64-i128:128-f80:128-n8:16:32:64-S128"
target triple = "x86_64-unknown-linux-gnu"

%"class.std::__cxx11::basic_string" = type { %"struct.std::__cxx11::basic_string<char>::_Alloc_hider", i64, %union.anon }
%"struct.std::__cxx11::basic_string<char>::_Alloc_hider" = type { ptr }
%union.anon = type { i64, [8 x i8] }
%"struct.std::_Vector_base.9" = type { %"struct.std::_Vector_base<rocksdb::FileMetaData *, std::allocator<rocksdb::FileMetaData *>>::_Vector_impl" }
%"struct.std::_Vector_base<rocksdb::FileMetaData *, std::allocator<rocksdb::FileMetaData *>>::_Vector_impl" = type { %"struct.std::_Vector_base<rocksdb::FileMetaData *, std::allocator<rocksdb::FileMetaData *>>::_Vector_impl_data" }
%"struct.std::_Vector_base<rocksdb::FileMetaData *, std::allocator<rocksdb::FileMetaData *>>::_Vector_impl_data" = type { ptr, ptr, ptr }
%"class.std::vector.73" = type { %"struct.std::_Vector_base.74" }
%"struct.std::_Vector_base.74" = type { %"struct.std::_Vector_base<int, std::allocator<int>>::_Vector_impl" }
%"struct.std::_Vector_base<int, std::allocator<int>>::_Vector_impl" = type { %"struct.std::_Vector_base<int, std::allocator<int>>::_Vector_impl_data" }
%"struct.std::_Vector_base<int, std::allocator<int>>::_Vector_impl_data" = type { ptr, ptr, ptr }
%"class.std::vector.88" = type { %"struct.std::_Vector_base.89" }
%"struct.std::_Vector_base.89" = type { %"struct.std::_Vector_base<unsigned long, std::allocator<unsigned long>>::_Vector_impl" }
%"struct.std::_Vector_base<unsigned long, std::allocator<unsigned long>>::_Vector_impl" = type { %"struct.std::_Vector_base<unsigned long, std::allocator<unsigned long>>::_Vector_impl_data" }
%"struct.std::_Vector_base<unsigned long, std::allocator<unsigned long>>::_Vector_impl_data" = type { ptr, ptr, ptr }
%"class.rocksdb::Arena" = type { %"class.rocksdb::Allocator", [8 x i8], [2048 x i8], i64, %"class.std::deque", %"class.std::deque.124", i64, ptr, ptr, i64, i64, i64, ptr }
%"class.rocksdb::Allocator" = type { ptr }
%"class.std::deque" = type { %"class.std::_Deque_base" }
%"class.std::_Deque_base" = type { %"struct.std::_Deque_base<std::unique_ptr<char[]>, std::allocator<std::unique_ptr<char[]>>>::_Deque_impl" }
%"struct.std::_Deque_base<std::unique_ptr<char[]>, std::allocator<std::unique_ptr<char[]>>>::_Deque_impl" = type { %"struct.std::_Deque_base<std::unique_ptr<char[]>, std::allocator<std::unique_ptr<char[]>>>::_Deque_impl_data" }
%"struct.std::_Deque_base<std::unique_ptr<char[]>, std::allocator<std::unique_ptr<char[]>>>::_Deque_impl_data" = type { ptr, i64, %"struct.std::_Deque_iterator", %"struct.std::_Deque_iterator" }
%"struct.std::_Deque_iterator" = type { ptr, ptr, ptr, ptr }
%"class.std::deque.124" = type { %"class.std::_Deque_base.125" }
%"class.std::_Deque_base.125" = type { %"struct.std::_Deque_base<rocksdb::MemMapping, std::allocator<rocksdb::MemMapping>>::_Deque_impl" }
%"struct.std::_Deque_base<rocksdb::MemMapping, std::allocator<rocksdb::MemMapping>>::_Deque_impl" = type { %"struct.std::_Deque_base<rocksdb::MemMapping, std::allocator<rocksdb::MemMapping>>::_Deque_impl_data" }
%"struct.std::_Deque_base<rocksdb::MemMapping, std::allocator<rocksdb::MemMapping>>::_Deque_impl_data" = type { ptr, i64, %"struct.std::_Deque_iterator.129", %"struct.std::_Deque_iterator.129" }
%"struct.std::_Deque_iterator.129" = type { ptr, ptr, ptr, ptr }
%"struct.std::_Vector_base.131" = type { %"struct.std::_Vector_base<rocksdb::CompactionInputFiles, std::allocator<rocksdb::CompactionInputFiles>>::_Vector_impl" }
%"struct.std::_Vector_base<rocksdb::CompactionInputFiles, std::allocator<rocksdb::CompactionInputFiles>>::_Vector_impl" = type { %"struct.std::_Vector_base<rocksdb::CompactionInputFiles, std::allocator<rocksdb::CompactionInputFiles>>::_Vector_impl_data" }
%"struct.std::_Vector_base<rocksdb::CompactionInputFiles, std::allocator<rocksdb::CompactionInputFiles>>::_Vector_impl_data" = type { ptr, ptr, ptr }
%"class.std::vector.136" = type { %"struct.std::_Vector_base.137" }
%"struct.std::_Vector_base.137" = type { %"struct.std::_Vector_base<rocksdb::LevelFilesBrief, std::allocator<rocksdb::LevelFilesBrief>>::_Vector_impl" }
%"struct.std::_Vector_base<rocksdb::LevelFilesBrief, std::allocator<rocksdb::LevelFilesBrief>>::_Vector_impl" = type { %"struct.std::_Vector_base<rocksdb::LevelFilesBrief, std::allocator<rocksdb::LevelFilesBrief>>::_Vector_impl_data" }
%"struct.std::_Vector_base<rocksdb::LevelFilesBrief, std::allocator<rocksdb::LevelFilesBrief>>::_Vector_impl_data" = type { ptr, ptr, ptr }
%"class.std::vector.8" = type { %"struct.std::_Vector_base.9" }
%"struct.std::__detail::_Hash_node_base" = type { ptr }
%"struct.std::__detail::_Prime_rehash_policy" = type { float, i64 }
%"class.rocksdb::VersionStorageInfo" = type { ptr, ptr, i32, i32, %"class.std::vector.88", %"class.rocksdb::autovector.147", %"class.rocksdb::FileIndexer", [8 x i8], %"class.rocksdb::Arena", i8, ptr, %"class.std::unordered_map.154", %"class.std::vector.174", i32, i32, double, %"class.std::vector.179", i8, %"class.std::vector.73", %"class.rocksdb::autovector.184", %"class.rocksdb::autovector.184", %"class.rocksdb::autovector.184", %"class.rocksdb::autovector.184", %"class.rocksdb::autovector.184", %"class.rocksdb::autovector.184", i64, i64, %"class.std::vector.190", %"class.std::vector.73", i32, %"class.std::vector.195", i64, i64, i64, i64, i64, i64, i64, i64, i64, ptr, i32, i8, i8, i32, %"struct.rocksdb::OffpeakTimeOption" }
%"class.rocksdb::autovector.147" = type { i64, [128 x i8], ptr, %"class.std::vector.136" }
%"class.rocksdb::FileIndexer" = type { i64, ptr, %"class.rocksdb::autovector.148", ptr }
%"class.rocksdb::autovector.148" = type { i64, [128 x i8], ptr, %"class.std::vector.149" }
%"class.std::vector.149" = type { %"struct.std::_Vector_base.150" }
%"struct.std::_Vector_base.150" = type { %"struct.std::_Vector_base<rocksdb::FileIndexer::IndexLevel, std::allocator<rocksdb::FileIndexer::IndexLevel>>::_Vector_impl" }
%"struct.std::_Vector_base<rocksdb::FileIndexer::IndexLevel, std::allocator<rocksdb::FileIndexer::IndexLevel>>::_Vector_impl" = type { %"struct.std::_Vector_base<rocksdb::FileIndexer::IndexLevel, std::allocator<rocksdb::FileIndexer::IndexLevel>>::_Vector_impl_data" }
%"struct.std::_Vector_base<rocksdb::FileIndexer::IndexLevel, std::allocator<rocksdb::FileIndexer::IndexLevel>>::_Vector_impl_data" = type { ptr, ptr, ptr }
%"class.std::unordered_map.154" = type { %"class.std::_Hashtable.155" }
%"class.std::_Hashtable.155" = type { ptr, i64, %"struct.std::__detail::_Hash_node_base", i64, %"struct.std::__detail::_Prime_rehash_policy", ptr }
%"class.std::vector.174" = type { %"struct.std::_Vector_base.175" }
%"struct.std::_Vector_base.175" = type { %"struct.std::_Vector_base<std::shared_ptr<rocksdb::BlobFileMetaData>, std::allocator<std::shared_ptr<rocksdb::BlobFileMetaData>>>::_Vector_impl" }
%"struct.std::_Vector_base<std::shared_ptr<rocksdb::BlobFileMetaData>, std::allocator<std::shared_ptr<rocksdb::BlobFileMetaData>>>::_Vector_impl" = type { %"struct.std::_Vector_base<std::shared_ptr<rocksdb::BlobFileMetaData>, std::allocator<std::shared_ptr<rocksdb::BlobFileMetaData>>>::_Vector_impl_data" }
%"struct.std::_Vector_base<std::shared_ptr<rocksdb::BlobFileMetaData>, std::allocator<std::shared_ptr<rocksdb::BlobFileMetaData>>>::_Vector_impl_data" = type { ptr, ptr, ptr }
%"class.std::vector.179" = type { %"struct.std::_Vector_base.180" }
%"struct.std::_Vector_base.180" = type { %"struct.std::_Vector_base<std::vector<int>, std::allocator<std::vector<int>>>::_Vector_impl" }
%"struct.std::_Vector_base<std::vector<int>, std::allocator<std::vector<int>>>::_Vector_impl" = type { %"struct.std::_Vector_base<std::vector<int>, std::allocator<std::vector<int>>>::_Vector_impl_data" }
%"struct.std::_Vector_base<std::vector<int>, std::allocator<std::vector<int>>>::_Vector_impl_data" = type { ptr, ptr, ptr }
%"class.rocksdb::autovector.184" = type { i64, [128 x i8], ptr, %"class.std::vector.185" }
%"class.std::vector.185" = type { %"struct.std::_Vector_base.186" }
%"struct.std::_Vector_base.186" = type { %"struct.std::_Vector_base<std::pair<int, rocksdb::FileMetaData *>, std::allocator<std::pair<int, rocksdb::FileMetaData *>>>::_Vector_impl" }
%"struct.std::_Vector_base<std::pair<int, rocksdb::FileMetaData *>, std::allocator<std::pair<int, rocksdb::FileMetaData *>>>::_Vector_impl" = type { %"struct.std::_Vector_base<std::pair<int, rocksdb::FileMetaData *>, std::allocator<std::pair<int, rocksdb::FileMetaData *>>>::_Vector_impl_data" }
%"struct.std::_Vector_base<std::pair<int, rocksdb::FileMetaData *>, std::allocator<std::pair<int, rocksdb::FileMetaData *>>>::_Vector_impl_data" = type { ptr, ptr, ptr }
%"class.std::vector.190" = type { %"struct.std::_Vector_base.191" }
%"struct.std::_Vector_base.191" = type { %"struct.std::_Vector_base<double, std::allocator<double>>::_Vector_impl" }
%"struct.std::_Vector_base<double, std::allocator<double>>::_Vector_impl" = type { %"struct.std::_Vector_base<double, std::allocator<double>>::_Vector_impl_data" }
%"struct.std::_Vector_base<double, std::allocator<double>>::_Vector_impl_data" = type { ptr, ptr, ptr }
%"class.std::vector.195" = type { %"struct.std::_Vector_base.196" }
%"struct.std::_Vector_base.196" = type { %"struct.std::_Vector_base<rocksdb::InternalKey, std::allocator<rocksdb::InternalKey>>::_Vector_impl" }
%"struct.std::_Vector_base<rocksdb::InternalKey, std::allocator<rocksdb::InternalKey>>::_Vector_impl" = type { %"struct.std::_Vector_base<rocksdb::InternalKey, std::allocator<rocksdb::InternalKey>>::_Vector_impl_data" }
%"struct.std::_Vector_base<rocksdb::InternalKey, std::allocator<rocksdb::InternalKey>>::_Vector_impl_data" = type { ptr, ptr, ptr }
%"struct.rocksdb::OffpeakTimeOption" = type { %"class.std::__cxx11::basic_string", i32, i32 }
%"struct.rocksdb::CompactionInputFiles" = type { i32, %"class.std::vector.8", %"class.std::vector.284" }
%"class.std::vector.284" = type { %"struct.std::_Vector_base.285" }
%"struct.std::_Vector_base.285" = type { %"struct.std::_Vector_base<rocksdb::AtomicCompactionUnitBoundary, std::allocator<rocksdb::AtomicCompactionUnitBoundary>>::_Vector_impl" }
%"struct.std::_Vector_base<rocksdb::AtomicCompactionUnitBoundary, std::allocator<rocksdb::AtomicCompactionUnitBoundary>>::_Vector_impl" = type { %"struct.std::_Vector_base<rocksdb::AtomicCompactionUnitBoundary, std::allocator<rocksdb::AtomicCompactionUnitBoundary>>::_Vector_impl_data" }
%"struct.std::_Vector_base<rocksdb::AtomicCompactionUnitBoundary, std::allocator<rocksdb::AtomicCompactionUnitBoundary>>::_Vector_impl_data" = type { ptr, ptr, ptr }

; Function Attrs: mustprogress nounwind uwtable
define linkonce_odr noundef i64 @_ZNKSt6vectorIPN7rocksdb12FileMetaDataESaIS2_EE4sizeEv(ptr noundef nonnull align 8 dereferenceable(24) %this) #1 comdat align 2 {
entry:
  %this.addr = alloca ptr, align 8
  store ptr %this, ptr %this.addr, align 8
  %this1 = load ptr, ptr %this.addr, align 8
  %_M_impl = getelementptr inbounds %"struct.std::_Vector_base.9", ptr %this1, i32 0, i32 0
  %_M_finish = getelementptr inbounds %"struct.std::_Vector_base<rocksdb::FileMetaData *, std::allocator<rocksdb::FileMetaData *>>::_Vector_impl_data", ptr %_M_impl, i32 0, i32 1
  %0 = load ptr, ptr %_M_finish, align 8
  %_M_impl2 = getelementptr inbounds %"struct.std::_Vector_base.9", ptr %this1, i32 0, i32 0
  %_M_start = getelementptr inbounds %"struct.std::_Vector_base<rocksdb::FileMetaData *, std::allocator<rocksdb::FileMetaData *>>::_Vector_impl_data", ptr %_M_impl2, i32 0, i32 0
  %1 = load ptr, ptr %_M_start, align 8
  %sub.ptr.lhs.cast = ptrtoint ptr %0 to i64
  %sub.ptr.rhs.cast = ptrtoint ptr %1 to i64
  %sub.ptr.sub = sub i64 %sub.ptr.lhs.cast, %sub.ptr.rhs.cast
  %sub.ptr.div = sdiv exact i64 %sub.ptr.sub, 8
  ret i64 %sub.ptr.div
}

; Function Attrs: mustprogress nounwind uwtable
define linkonce_odr noundef i64 @_ZNK7rocksdb20CompactionInputFiles4sizeEv(ptr noundef nonnull align 8 dereferenceable(56) %this) #1 comdat align 2 {
entry:
  %this.addr = alloca ptr, align 8
  store ptr %this, ptr %this.addr, align 8
  %this1 = load ptr, ptr %this.addr, align 8
  %files = getelementptr inbounds %"struct.rocksdb::CompactionInputFiles", ptr %this1, i32 0, i32 1
  %call = call noundef i64 @_ZNKSt6vectorIPN7rocksdb12FileMetaDataESaIS2_EE4sizeEv(ptr noundef nonnull align 8 dereferenceable(24) %files) #3
  ret i64 %call
}

; Function Attrs: mustprogress nounwind uwtable
define linkonce_odr noundef nonnull align 8 dereferenceable(56) ptr @_ZNKSt6vectorIN7rocksdb20CompactionInputFilesESaIS1_EEixEm(ptr noundef nonnull align 8 dereferenceable(24) %this, i64 noundef %__n) #1 comdat align 2 {
entry:
  %this.addr = alloca ptr, align 8
  %__n.addr = alloca i64, align 8
  store ptr %this, ptr %this.addr, align 8
  store i64 %__n, ptr %__n.addr, align 8
  %this1 = load ptr, ptr %this.addr, align 8
  %_M_impl = getelementptr inbounds %"struct.std::_Vector_base.131", ptr %this1, i32 0, i32 0
  %_M_start = getelementptr inbounds %"struct.std::_Vector_base<rocksdb::CompactionInputFiles, std::allocator<rocksdb::CompactionInputFiles>>::_Vector_impl_data", ptr %_M_impl, i32 0, i32 0
  %0 = load ptr, ptr %_M_start, align 8
  %1 = load i64, ptr %__n.addr, align 8
  %add.ptr = getelementptr inbounds %"struct.rocksdb::CompactionInputFiles", ptr %0, i64 %1
  ret ptr %add.ptr
}

; Function Attrs: mustprogress nounwind uwtable
define linkonce_odr noundef i64 @_ZNKSt6vectorIN7rocksdb20CompactionInputFilesESaIS1_EE4sizeEv(ptr noundef nonnull align 8 dereferenceable(24) %this) #1 comdat align 2 {
entry:
  %this.addr = alloca ptr, align 8
  store ptr %this, ptr %this.addr, align 8
  %this1 = load ptr, ptr %this.addr, align 8
  %_M_impl = getelementptr inbounds %"struct.std::_Vector_base.131", ptr %this1, i32 0, i32 0
  %_M_finish = getelementptr inbounds %"struct.std::_Vector_base<rocksdb::CompactionInputFiles, std::allocator<rocksdb::CompactionInputFiles>>::_Vector_impl_data", ptr %_M_impl, i32 0, i32 1
  %0 = load ptr, ptr %_M_finish, align 8
  %_M_impl2 = getelementptr inbounds %"struct.std::_Vector_base.131", ptr %this1, i32 0, i32 0
  %_M_start = getelementptr inbounds %"struct.std::_Vector_base<rocksdb::CompactionInputFiles, std::allocator<rocksdb::CompactionInputFiles>>::_Vector_impl_data", ptr %_M_impl2, i32 0, i32 0
  %1 = load ptr, ptr %_M_start, align 8
  %sub.ptr.lhs.cast = ptrtoint ptr %0 to i64
  %sub.ptr.rhs.cast = ptrtoint ptr %1 to i64
  %sub.ptr.sub = sub i64 %sub.ptr.lhs.cast, %sub.ptr.rhs.cast
  %sub.ptr.div = sdiv exact i64 %sub.ptr.sub, 56
  ret i64 %sub.ptr.div
}

; Function Attrs: mustprogress nounwind uwtable
define linkonce_odr noundef i32 @_ZNK7rocksdb18VersionStorageInfo13NumLevelFilesEi(ptr noundef nonnull align 16 dereferenceable(4112) %this, i32 noundef %level) #1 comdat align 2 {
entry:
  %this.addr = alloca ptr, align 8
  %level.addr = alloca i32, align 4
  store ptr %this, ptr %this.addr, align 8
  store i32 %level, ptr %level.addr, align 4
  %this1 = load ptr, ptr %this.addr, align 8
  %files_ = getelementptr inbounds %"class.rocksdb::VersionStorageInfo", ptr %this1, i32 0, i32 10
  %0 = load ptr, ptr %files_, align 8
  %1 = load i32, ptr %level.addr, align 4
  %idxprom = sext i32 %1 to i64
  %arrayidx = getelementptr inbounds %"class.std::vector.8", ptr %0, i64 %idxprom
  %call = call noundef i64 @_ZNKSt6vectorIPN7rocksdb12FileMetaDataESaIS2_EE4sizeEv(ptr noundef nonnull align 8 dereferenceable(24) %arrayidx) #3
  %conv = trunc i64 %call to i32
  ret i32 %conv
}

; Function Attrs: mustprogress nounwind uwtable
define linkonce_odr noundef i32 @_ZNK7rocksdb18VersionStorageInfo10num_levelsEv(ptr noundef nonnull align 16 dereferenceable(4112) %this) #1 comdat align 2 {
entry:
  %this.addr = alloca ptr, align 8
  store ptr %this, ptr %this.addr, align 8
  %this1 = load ptr, ptr %this.addr, align 8
  %num_levels_ = getelementptr inbounds %"class.rocksdb::VersionStorageInfo", ptr %this1, i32 0, i32 2
  %0 = load i32, ptr %num_levels_, align 16
  ret i32 %0
}

; Function Attrs: mustprogress uwtable
define noundef zeroext i1 @_ZN7rocksdb10Compaction16IsFullCompactionEPNS_18VersionStorageInfoERKSt6vectorINS_20CompactionInputFilesESaIS4_EE(ptr noundef %vstorage, ptr noundef nonnull align 8 dereferenceable(24) %inputs) #0 align 2 {
entry:
  %vstorage.addr = alloca ptr, align 8
  %inputs.addr = alloca ptr, align 8
  %num_files_in_compaction = alloca i64, align 8
  %total_num_files = alloca i64, align 8
  %l = alloca i32, align 4
  %i = alloca i64, align 8
  store ptr %vstorage, ptr %vstorage.addr, align 8
  store ptr %inputs, ptr %inputs.addr, align 8
  store i64 0, ptr %num_files_in_compaction, align 8
  store i64 0, ptr %total_num_files, align 8
  store i32 0, ptr %l, align 4
  br label %for.cond

for.cond:                                         ; preds = %for.inc, %entry
  %0 = load i32, ptr %l, align 4
  %1 = load ptr, ptr %vstorage.addr, align 8
  %call = call noundef i32 @_ZNK7rocksdb18VersionStorageInfo10num_levelsEv(ptr noundef nonnull align 16 dereferenceable(4112) %1)
  %cmp = icmp slt i32 %0, %call
  br i1 %cmp, label %for.body, label %for.end

for.body:                                         ; preds = %for.cond
  %2 = load ptr, ptr %vstorage.addr, align 8
  %3 = load i32, ptr %l, align 4
  %call1 = call noundef i32 @_ZNK7rocksdb18VersionStorageInfo13NumLevelFilesEi(ptr noundef nonnull align 16 dereferenceable(4112) %2, i32 noundef %3)
  %conv = sext i32 %call1 to i64
  %4 = load i64, ptr %total_num_files, align 8
  %add = add i64 %4, %conv
  store i64 %add, ptr %total_num_files, align 8
  br label %for.inc

for.inc:                                          ; preds = %for.body
  %5 = load i32, ptr %l, align 4
  %inc = add nsw i32 %5, 1
  store i32 %inc, ptr %l, align 4
  br label %for.cond, !llvm.loop !11

for.end:                                          ; preds = %for.cond
  store i64 0, ptr %i, align 8
  br label %for.cond2

for.cond2:                                        ; preds = %for.inc9, %for.end
  %6 = load i64, ptr %i, align 8
  %7 = load ptr, ptr %inputs.addr, align 8
  %call3 = call noundef i64 @_ZNKSt6vectorIN7rocksdb20CompactionInputFilesESaIS1_EE4sizeEv(ptr noundef nonnull align 8 dereferenceable(24) %7) #3
  %cmp4 = icmp ult i64 %6, %call3
  br i1 %cmp4, label %for.body5, label %for.end11

for.body5:                                        ; preds = %for.cond2
  %8 = load ptr, ptr %inputs.addr, align 8
  %9 = load i64, ptr %i, align 8
  %call6 = call noundef nonnull align 8 dereferenceable(56) ptr @_ZNKSt6vectorIN7rocksdb20CompactionInputFilesESaIS1_EEixEm(ptr noundef nonnull align 8 dereferenceable(24) %8, i64 noundef %9) #3
  %call7 = call noundef i64 @_ZNK7rocksdb20CompactionInputFiles4sizeEv(ptr noundef nonnull align 8 dereferenceable(56) %call6)
  %10 = load i64, ptr %num_files_in_compaction, align 8
  %add8 = add i64 %10, %call7
  store i64 %add8, ptr %num_files_in_compaction, align 8
  br label %for.inc9

for.inc9:                                         ; preds = %for.body5
  %11 = load i64, ptr %i, align 8
  %inc10 = add i64 %11, 1
  store i64 %inc10, ptr %i, align 8
  br label %for.cond2, !llvm.loop !12

for.end11:                                        ; preds = %for.cond2
  %12 = load i64, ptr %num_files_in_compaction, align 8
  %13 = load i64, ptr %total_num_files, align 8
  %cmp12 = icmp eq i64 %12, %13
  ret i1 %cmp12
}