; Function Attrs: mustprogress nofree norecurse nosync nounwind willreturn memory(read, inaccessiblemem: none) uwtable
define noundef zeroext i1 @_ZN7rocksdb10Compaction16IsFullCompactionEPNS_18VersionStorageInfoERKSt6vectorINS_20CompactionInputFilesESaIS4_EE(ptr nocapture noundef readonly %vstorage, ptr nocapture noundef nonnull readonly align 8 dereferenceable(24) %inputs) local_unnamed_addr #4 align 2 {
entry:
  %num_levels_.i = getelementptr inbounds i8, ptr %vstorage, i64 16
  %0 = load i32, ptr %num_levels_.i, align 16
  %cmp14 = icmp sgt i32 %0, 0
  br i1 %cmp14, label %for.body.lr.ph, label %for.cond2.preheader

for.body.lr.ph:                                   ; preds = %entry
  %files_.i = getelementptr inbounds i8, ptr %vstorage, i64 2712
  %1 = load ptr, ptr %files_.i, align 8
  %wide.trip.count = zext nneg i32 %0 to i64
  br label %for.body

for.cond2.preheader:                              ; preds = %for.body, %entry
  %total_num_files.0.lcssa = phi i64 [ 0, %entry ], [ %add, %for.body ]
  %_M_finish.i = getelementptr inbounds i8, ptr %inputs, i64 8
  %2 = load ptr, ptr %_M_finish.i, align 8
  %3 = load ptr, ptr %inputs, align 8
  %cmp417.not = icmp eq ptr %2, %3
  br i1 %cmp417.not, label %for.end11, label %for.body5.preheader

for.body5.preheader:                              ; preds = %for.cond2.preheader
  %sub.ptr.lhs.cast.i = ptrtoint ptr %2 to i64
  %sub.ptr.rhs.cast.i = ptrtoint ptr %3 to i64
  %sub.ptr.sub.i = sub i64 %sub.ptr.lhs.cast.i, %sub.ptr.rhs.cast.i
  %sub.ptr.div.i = sdiv exact i64 %sub.ptr.sub.i, 56
  %umax = tail call i64 @llvm.umax.i64(i64 %sub.ptr.div.i, i64 1)
  br label %for.body5

for.body:                                         ; preds = %for.body.lr.ph, %for.body
  %indvars.iv = phi i64 [ 0, %for.body.lr.ph ], [ %indvars.iv.next, %for.body ]
  %total_num_files.015 = phi i64 [ 0, %for.body.lr.ph ], [ %add, %for.body ]
  %arrayidx.i = getelementptr inbounds %"class.std::vector.8", ptr %1, i64 %indvars.iv
  %_M_finish.i.i = getelementptr inbounds i8, ptr %arrayidx.i, i64 8
  %4 = load ptr, ptr %_M_finish.i.i, align 8
  %5 = load ptr, ptr %arrayidx.i, align 8
  %sub.ptr.lhs.cast.i.i = ptrtoint ptr %4 to i64
  %sub.ptr.rhs.cast.i.i = ptrtoint ptr %5 to i64
  %sub.ptr.sub.i.i = sub i64 %sub.ptr.lhs.cast.i.i, %sub.ptr.rhs.cast.i.i
  %sext = shl i64 %sub.ptr.sub.i.i, 29
  %conv = ashr i64 %sext, 32
  %add = add i64 %conv, %total_num_files.015
  %indvars.iv.next = add nuw nsw i64 %indvars.iv, 1
  %exitcond.not = icmp eq i64 %indvars.iv.next, %wide.trip.count
  br i1 %exitcond.not, label %for.cond2.preheader, label %for.body, !llvm.loop !24

for.body5:                                        ; preds = %for.body5.preheader, %for.body5
  %i.019 = phi i64 [ %inc10, %for.body5 ], [ 0, %for.body5.preheader ]
  %num_files_in_compaction.018 = phi i64 [ %add8, %for.body5 ], [ 0, %for.body5.preheader ]
  %add.ptr.i = getelementptr inbounds %"struct.rocksdb::CompactionInputFiles", ptr %3, i64 %i.019
  %files.i = getelementptr inbounds i8, ptr %add.ptr.i, i64 8
  %_M_finish.i.i9 = getelementptr inbounds i8, ptr %add.ptr.i, i64 16
  %6 = load ptr, ptr %_M_finish.i.i9, align 8
  %7 = load ptr, ptr %files.i, align 8
  %sub.ptr.lhs.cast.i.i10 = ptrtoint ptr %6 to i64
  %sub.ptr.rhs.cast.i.i11 = ptrtoint ptr %7 to i64
  %sub.ptr.sub.i.i12 = sub i64 %sub.ptr.lhs.cast.i.i10, %sub.ptr.rhs.cast.i.i11
  %sub.ptr.div.i.i13 = ashr exact i64 %sub.ptr.sub.i.i12, 3
  %add8 = add i64 %sub.ptr.div.i.i13, %num_files_in_compaction.018
  %inc10 = add nuw i64 %i.019, 1
  %exitcond22.not = icmp eq i64 %inc10, %umax
  br i1 %exitcond22.not, label %for.end11, label %for.body5, !llvm.loop !25

for.end11:                                        ; preds = %for.body5, %for.cond2.preheader
  %num_files_in_compaction.0.lcssa = phi i64 [ 0, %for.cond2.preheader ], [ %add8, %for.body5 ]
  %cmp12 = icmp eq i64 %num_files_in_compaction.0.lcssa, %total_num_files.0.lcssa
  ret i1 %cmp12
}